; Function Attrs: mustprogress nounwind uwtable
define hidden noundef ptr @_ZNK13ZBarrierSetC217store_at_resolvedER8C2AccessR13C2AccessValue(ptr noundef nonnull align 8 dereferenceable(8) %0, ptr noundef nonnull align 8 dereferenceable(49) %1, ptr noundef nonnull align 8 dereferenceable(16) %2) unnamed_addr #0 align 2 {
  %4 = getelementptr inbounds i8, ptr %1, i64 8
  %5 = load i64, ptr %4, align 8
  %6 = getelementptr inbounds i8, ptr %1, i64 16
  %7 = load i8, ptr %6, align 8
  %8 = tail call noundef zeroext i1 @_ZN11ZBarrierSet14barrier_neededEm9BasicType(i64 noundef %5, i8 noundef zeroext %7) #14
  br i1 %8, label %9, label %_ZL16set_barrier_dataR8C2Access.exit

9:                                                ; preds = %3
  %10 = load i64, ptr %4, align 8
  %11 = and i64 %10, 549755813888
  %.not.i = icmp eq i64 %11, 0
  br i1 %.not.i, label %12, label %.sink.split.i

12:                                               ; preds = %9
  %13 = and i64 %10, 65536
  %.not14.i = icmp eq i64 %13, 0
  %14 = and i64 %10, 32768
  %.not15.i = icmp eq i64 %14, 0
  %..i = select i1 %.not15.i, i8 1, i8 2
  %.0.i = select i1 %.not14.i, i8 %..i, i8 4
  %15 = lshr i64 %10, 15
  %16 = trunc i64 %15 to i8
  %17 = and i8 %16, 16
  %18 = lshr i64 %10, 9
  %19 = trunc i64 %18 to i8
  %20 = and i8 %19, 8
  %spec.select.i = or disjoint i8 %20, %17
  %.2.i = or disjoint i8 %spec.select.i, %.0.i
  br label %.sink.split.i

.sink.split.i:                                    ; preds = %12, %9
  %.2.sink.i = phi i8 [ %.2.i, %12 ], [ 32, %9 ]
  %21 = getelementptr inbounds i8, ptr %1, i64 48
  store i8 %.2.sink.i, ptr %21, align 8
  br label %_ZL16set_barrier_dataR8C2Access.exit

_ZL16set_barrier_dataR8C2Access.exit:             ; preds = %3, %.sink.split.i
  %22 = tail call noundef ptr @_ZNK12BarrierSetC217store_at_resolvedER8C2AccessR13C2AccessValue(ptr noundef nonnull align 8 dereferenceable(8) %0, ptr noundef nonnull align 8 dereferenceable(49) %1, ptr noundef nonnull align 8 dereferenceable(16) %2) #14
  ret ptr %22
}